target datalayout = "e-m:e-p270:32:32-p271:32:32-p272:64:64-i64:64-i128:128-f80:128-n8:16:32:64-S128"
target triple = "x86_64-pc-linux-gnu"

%"struct.std::atomic.14" = type { %"struct.std::__atomic_base.15" }
%"struct.std::__atomic_base.15" = type { i8 }
%struct.grpc_cq_completion = type { %"class.grpc_core::ManualConstructor", ptr, ptr, ptr, i64 }
%"class.grpc_core::ManualConstructor" = type { [8 x i8] }
%"struct.std::atomic" = type { %"struct.std::__atomic_base" }
%"struct.std::__atomic_base" = type { i64 }
%"struct.(anonymous namespace)::cq_pluck_data" = type { %struct.grpc_cq_completion, ptr, %"struct.std::atomic", %"struct.std::atomic", %"struct.std::atomic.14", i8, i32, [6 x %"struct.(anonymous namespace)::plucker"] }
%"struct.(anonymous namespace)::plucker" = type { ptr, ptr }

; Function Attrs: mustprogress nounwind uwtable
define linkonce_odr void @_ZNSt13__atomic_baseIbEC2Eb(ptr noundef nonnull align 1 dereferenceable(1) %0, i1 noundef zeroext %1) unnamed_addr #4 comdat align 2 {
  %3 = alloca ptr, align 8
  %4 = alloca i8, align 1
  store ptr %0, ptr %3, align 8, !tbaa !157
  %5 = zext i1 %1 to i8
  store i8 %5, ptr %4, align 1, !tbaa !116
  %6 = load ptr, ptr %3, align 8
  %7 = getelementptr inbounds nuw %"struct.std::__atomic_base.15", ptr %6, i32 0, i32 0
  %8 = load i8, ptr %4, align 1, !tbaa !116, !range !72, !noundef !73
  %9 = trunc i8 %8 to i1
  %10 = zext i1 %9 to i8
  store i8 %10, ptr %7, align 1, !tbaa !329
  ret void
}

; Function Attrs: mustprogress nounwind uwtable
define linkonce_odr void @_ZNSt13__atomic_baseIlEC2El(ptr noundef nonnull align 8 dereferenceable(8) %0, i64 noundef %1) unnamed_addr #4 comdat align 2 {
  %3 = alloca ptr, align 8
  %4 = alloca i64, align 8
  store ptr %0, ptr %3, align 8, !tbaa !56
  store i64 %1, ptr %4, align 8, !tbaa !58
  %5 = load ptr, ptr %3, align 8
  %6 = getelementptr inbounds nuw %"struct.std::__atomic_base", ptr %5, i32 0, i32 0
  %7 = load i64, ptr %4, align 8, !tbaa !58
  store i64 %7, ptr %6, align 8, !tbaa !267
  ret void
}

; Function Attrs: mustprogress nounwind uwtable
define linkonce_odr void @_ZNSt6atomicIbEC2Eb(ptr noundef nonnull align 1 dereferenceable(1) %0, i1 noundef zeroext %1) unnamed_addr #4 comdat align 2 {
  %3 = alloca ptr, align 8
  %4 = alloca i8, align 1
  store ptr %0, ptr %3, align 8, !tbaa !155
  %5 = zext i1 %1 to i8
  store i8 %5, ptr %4, align 1, !tbaa !116
  %6 = load ptr, ptr %3, align 8
  %7 = getelementptr inbounds nuw %"struct.std::atomic.14", ptr %6, i32 0, i32 0
  %8 = load i8, ptr %4, align 1, !tbaa !116, !range !72, !noundef !73
  %9 = trunc i8 %8 to i1
  call void @_ZNSt13__atomic_baseIbEC2Eb(ptr noundef nonnull align 1 dereferenceable(1) %7, i1 noundef zeroext %9) #3
  ret void
}

; Function Attrs: mustprogress nounwind uwtable
define linkonce_odr void @_ZNSt6atomicIlEC2El(ptr noundef nonnull align 8 dereferenceable(8) %0, i64 noundef %1) unnamed_addr #4 comdat align 2 {
  %3 = alloca ptr, align 8
  %4 = alloca i64, align 8
  store ptr %0, ptr %3, align 8, !tbaa !256
  store i64 %1, ptr %4, align 8, !tbaa !58
  %5 = load ptr, ptr %3, align 8
  %6 = load i64, ptr %4, align 8, !tbaa !58
  call void @_ZNSt13__atomic_baseIlEC2El(ptr noundef nonnull align 8 dereferenceable(8) %5, i64 noundef %6) #3
  ret void
}

; Function Attrs: mustprogress nounwind uwtable
define internal void @_ZN12_GLOBAL__N_113cq_pluck_dataC2Ev(ptr noundef nonnull align 8 dereferenceable(168) %0) unnamed_addr #4 align 2 {
  %2 = alloca ptr, align 8
  store ptr %0, ptr %2, align 8, !tbaa !224
  %3 = load ptr, ptr %2, align 8
  %4 = getelementptr inbounds nuw %"struct.(anonymous namespace)::cq_pluck_data", ptr %3, i32 0, i32 2
  call void @_ZNSt6atomicIlEC2El(ptr noundef nonnull align 8 dereferenceable(8) %4, i64 noundef 1) #3
  %5 = getelementptr inbounds nuw %"struct.(anonymous namespace)::cq_pluck_data", ptr %3, i32 0, i32 3
  call void @_ZNSt6atomicIlEC2El(ptr noundef nonnull align 8 dereferenceable(8) %5, i64 noundef 0) #3
  %6 = getelementptr inbounds nuw %"struct.(anonymous namespace)::cq_pluck_data", ptr %3, i32 0, i32 4
  call void @_ZNSt6atomicIbEC2Eb(ptr noundef nonnull align 1 dereferenceable(1) %6, i1 noundef zeroext false) #3
  %7 = getelementptr inbounds nuw %"struct.(anonymous namespace)::cq_pluck_data", ptr %3, i32 0, i32 5
  store i8 0, ptr %7, align 1, !tbaa !226
  %8 = getelementptr inbounds nuw %"struct.(anonymous namespace)::cq_pluck_data", ptr %3, i32 0, i32 6
  store i32 0, ptr %8, align 4, !tbaa !233
  %9 = getelementptr inbounds nuw %"struct.(anonymous namespace)::cq_pluck_data", ptr %3, i32 0, i32 0
  %10 = getelementptr inbounds nuw %"struct.(anonymous namespace)::cq_pluck_data", ptr %3, i32 0, i32 1
  store ptr %9, ptr %10, align 8, !tbaa !230
  %11 = getelementptr inbounds nuw %"struct.(anonymous namespace)::cq_pluck_data", ptr %3, i32 0, i32 1
  %12 = load ptr, ptr %11, align 8, !tbaa !230
  %13 = ptrtoint ptr %12 to i64
  %14 = getelementptr inbounds nuw %"struct.(anonymous namespace)::cq_pluck_data", ptr %3, i32 0, i32 0
  %15 = getelementptr inbounds nuw %struct.grpc_cq_completion, ptr %14, i32 0, i32 4
  store i64 %13, ptr %15, align 8, !tbaa !328
  ret void
}

; Function Attrs: mustprogress uwtable
define internal void @_ZL13cq_init_pluckPvP29grpc_completion_queue_functor(ptr noundef %0, ptr noundef %1) #6 {
  %3 = alloca ptr, align 8
  %4 = alloca ptr, align 8
  store ptr %0, ptr %3, align 8, !tbaa !20
  store ptr %1, ptr %4, align 8, !tbaa !88
  %5 = load ptr, ptr %3, align 8, !tbaa !20
  call void @_ZN12_GLOBAL__N_113cq_pluck_dataC2Ev(ptr noundef nonnull align 8 dereferenceable(168) %5)
  ret void
}