; Function Attrs: mustprogress nofree norecurse nosync nounwind willreturn memory(argmem: write) uwtable
define internal void @_ZL13cq_init_pluckPvP29grpc_completion_queue_functor(ptr noundef initializes((48, 66), (68, 72)) %0, ptr readnone captures(none) %1) #23 {
  %3 = getelementptr inbounds nuw i8, ptr %0, i64 48
  store i64 1, ptr %3, align 8, !tbaa !83
  %4 = getelementptr inbounds nuw i8, ptr %0, i64 56
  store i64 0, ptr %4, align 8, !tbaa !83
  %5 = getelementptr inbounds nuw i8, ptr %0, i64 64
  store i8 0, ptr %5, align 1, !tbaa !147
  %6 = getelementptr inbounds nuw i8, ptr %0, i64 65
  store i8 0, ptr %6, align 1, !tbaa !149
  %7 = getelementptr inbounds nuw i8, ptr %0, i64 68
  store i32 0, ptr %7, align 4, !tbaa !152
  %8 = getelementptr inbounds nuw i8, ptr %0, i64 40
  store ptr %0, ptr %8, align 8, !tbaa !153
  %9 = ptrtoint ptr %0 to i64
  %10 = getelementptr inbounds nuw i8, ptr %0, i64 32
  store i64 %9, ptr %10, align 8, !tbaa !154
  ret void
}